; Function Attrs: mustprogress nofree norecurse nosync nounwind willreturn memory(read, argmem: readwrite, inaccessiblemem: none) uwtable
define zeroext i8 @stbtt__buf_get8(ptr noundef captures(none) %0) local_unnamed_addr #0 {
  %2 = getelementptr inbounds nuw i8, ptr %0, i64 8
  %3 = load i32, ptr %2, align 8, !tbaa !3
  %4 = getelementptr inbounds nuw i8, ptr %0, i64 12
  %5 = load i32, ptr %4, align 4, !tbaa !10
  %.not = icmp slt i32 %3, %5
  br i1 %.not, label %6, label %12

6:                                                ; preds = %1
  %7 = load ptr, ptr %0, align 8, !tbaa !11
  %8 = add nsw i32 %3, 1
  store i32 %8, ptr %2, align 8, !tbaa !3
  %9 = sext i32 %3 to i64
  %10 = getelementptr inbounds i8, ptr %7, i64 %9
  %11 = load i8, ptr %10, align 1, !tbaa !12
  br label %12

12:                                               ; preds = %1, %6
  %.0 = phi i8 [ %11, %6 ], [ 0, %1 ]
  ret i8 %.0
}